target datalayout = "e-m:e-p270:32:32-p271:32:32-p272:64:64-i64:64-i128:128-f80:128-n8:16:32:64-S128"
target triple = "x86_64-pc-linux-gnu"

; Function Attrs: nounwind uwtable
define internal i32 @summit(ptr noundef %0, i32 noundef %1) #0 {
  %3 = alloca ptr, align 8
  %4 = alloca i32, align 4
  %5 = alloca i32, align 4
  %6 = alloca i32, align 4
  %7 = alloca i32, align 4
  %8 = alloca i32, align 4
  store ptr %0, ptr %3, align 8
  store i32 %1, ptr %4, align 4
  store i32 -1, ptr %5, align 4
  store i32 -1, ptr %6, align 4
  br label %9

9:                                                ; preds = %60, %2
  %10 = load i32, ptr %4, align 4
  %11 = icmp ne i32 %10, 0
  br i1 %11, label %12, label %63

12:                                               ; preds = %9
  %13 = load ptr, ptr %3, align 8
  %14 = getelementptr inbounds i8, ptr %13, i32 1
  store ptr %14, ptr %3, align 8
  %15 = load i8, ptr %13, align 1
  %16 = sext i8 %15 to i32
  %17 = shl i32 %16, 8
  %18 = and i32 %17, 65280
  %19 = load i32, ptr %5, align 4
  %20 = xor i32 %19, %18
  store i32 %20, ptr %5, align 4
  %21 = load i32, ptr %5, align 4
  %22 = lshr i32 %21, 3
  %23 = and i32 %22, 536870911
  store i32 %23, ptr %5, align 4
  store i32 0, ptr %7, align 4
  br label %24

24:                                               ; preds = %57, %12
  %25 = load i32, ptr %7, align 4
  %26 = icmp slt i32 %25, 4
  br i1 %26, label %27, label %60

27:                                               ; preds = %24
  %28 = load i32, ptr %6, align 4
  %29 = lshr i32 %28, 8
  %30 = and i32 %29, 255
  %31 = load i32, ptr %5, align 4
  %32 = xor i32 %31, %30
  store i32 %32, ptr %5, align 4
  %33 = load i32, ptr %5, align 4
  %34 = add i32 %33, 2013372680
  store i32 %34, ptr %5, align 4
  %35 = load i32, ptr %6, align 4
  %36 = load i32, ptr %5, align 4
  %37 = xor i32 %36, %35
  store i32 %37, ptr %5, align 4
  %38 = load i32, ptr %5, align 4
  %39 = load i32, ptr %6, align 4
  %40 = and i32 %39, 255
  %41 = zext i32 %40 to i64
  %42 = and i64 %41, 31
  %43 = trunc i64 %42 to i32
  %44 = lshr i32 %38, %43
  %45 = load i32, ptr %5, align 4
  %46 = load i32, ptr %6, align 4
  %47 = and i32 %46, 255
  %48 = zext i32 %47 to i64
  %49 = sub i64 32, %48
  %50 = and i64 %49, 31
  %51 = trunc i64 %50 to i32
  %52 = shl i32 %45, %51
  %53 = or i32 %44, %52
  store i32 %53, ptr %5, align 4
  %54 = load i32, ptr %5, align 4
  store i32 %54, ptr %8, align 4
  %55 = load i32, ptr %6, align 4
  store i32 %55, ptr %5, align 4
  %56 = load i32, ptr %8, align 4
  store i32 %56, ptr %6, align 4
  br label %57

57:                                               ; preds = %27
  %58 = load i32, ptr %7, align 4
  %59 = add nsw i32 %58, 1
  store i32 %59, ptr %7, align 4
  br label %24

60:                                               ; preds = %24
  %61 = load i32, ptr %4, align 4
  %62 = add nsw i32 %61, -1
  store i32 %62, ptr %4, align 4
  br label %9

63:                                               ; preds = %9
  %64 = load i32, ptr %6, align 4
  ret i32 %64
}