; Function Attrs: nofree norecurse nosync nounwind memory(argmem: read) uwtable
define internal fastcc i32 @summit(ptr noundef readonly captures(none) %0, i32 noundef %1) unnamed_addr #4 {
  %.not27 = icmp eq i32 %1, 0
  br i1 %.not27, label %._crit_edge, label %.lr.ph

.lr.ph:                                           ; preds = %2, %17
  %.031 = phi ptr [ %18, %17 ], [ %0, %2 ]
  %.02030 = phi i32 [ %15, %17 ], [ -1, %2 ]
  %.02129 = phi i32 [ %.125, %17 ], [ -1, %2 ]
  %.02328 = phi i32 [ %19, %17 ], [ %1, %2 ]
  %3 = load i8, ptr %.031, align 1
  %4 = sext i8 %3 to i32
  %5 = shl nsw i32 %4, 8
  %6 = and i32 %5, 65280
  %7 = xor i32 %6, %.02129
  %8 = lshr i32 %7, 3
  br label %9

9:                                                ; preds = %.lr.ph, %9
  %.01926 = phi i32 [ 0, %.lr.ph ], [ %16, %9 ]
  %.125 = phi i32 [ %.02030, %.lr.ph ], [ %15, %9 ]
  %.12224 = phi i32 [ %8, %.lr.ph ], [ %.125, %9 ]
  %10 = lshr i32 %.125, 8
  %11 = and i32 %10, 255
  %12 = xor i32 %11, %.12224
  %13 = add i32 %12, 2013372680
  %14 = xor i32 %13, %.125
  %15 = tail call i32 @llvm.fshr.i32(i32 %14, i32 %14, i32 %.125)
  %16 = add nuw nsw i32 %.01926, 1
  %exitcond.not = icmp eq i32 %16, 4
  br i1 %exitcond.not, label %17, label %9

17:                                               ; preds = %9
  %18 = getelementptr inbounds nuw i8, ptr %.031, i64 1
  %19 = add nsw i32 %.02328, -1
  %.not = icmp eq i32 %19, 0
  br i1 %.not, label %._crit_edge, label %.lr.ph

._crit_edge:                                      ; preds = %17, %2
  %.020.lcssa = phi i32 [ -1, %2 ], [ %15, %17 ]
  ret i32 %.020.lcssa
}